target datalayout = "e-m:e-p270:32:32-p271:32:32-p272:64:64-i64:64-i128:128-f80:128-n8:16:32:64-S128"
target triple = "x86_64-pc-linux-gnu"

%struct.ArchCPU = type { %struct.CPUState, %struct.CPUArchState, %struct.GDBFeature, %struct.GDBFeature, %struct.RISCVCPUConfig, ptr, i32, ptr, ptr, [8 x i8] }
%struct.CPUState = type { %struct.DeviceState, ptr, i32, ptr, i32, i8, i8, ptr, i8, i8, i8, i8, i8, i8, i8, i8, i32, i32, i32, i32, i64, i64, i64, [1 x %struct.__jmp_buf_tag], %struct.QemuMutex, %struct.anon, ptr, i32, i32, ptr, ptr, ptr, ptr, i32, i32, %union.anon, %union.anon.0, %union.anon.1, ptr, ptr, i64, i32, ptr, ptr, ptr, i32, i64, i32, i8, %struct.QemuLockCnt, ptr, i32, i32, i32, i32, i32, ptr, i8, i64, i8, i8, ptr, [0 x i8], %struct.CPUNegativeOffsetState }
%struct.DeviceState = type { %struct.Object, ptr, ptr, i8, i8, i64, i32, i8, ptr, %struct.NamedGPIOListHead, %struct.NamedClockListHead, %struct.BusStateHead, i32, i32, i32, %struct.ResettableState, ptr, %struct.MemReentrancyGuard }
%struct.Object = type { ptr, ptr, ptr, i32, ptr }
%struct.NamedGPIOListHead = type { ptr }
%struct.NamedClockListHead = type { ptr }
%struct.BusStateHead = type { ptr }
%struct.ResettableState = type { i32, i8, i8 }
%struct.MemReentrancyGuard = type { i8 }
%struct.__jmp_buf_tag = type { [8 x i64], i32, %struct.__sigset_t }
%struct.__sigset_t = type { [16 x i64] }
%struct.QemuMutex = type { %union.pthread_mutex_t, i8 }
%union.pthread_mutex_t = type { %struct.__pthread_mutex_s }
%struct.__pthread_mutex_s = type { i32, i32, i32, i32, i32, i16, i16, %struct.__pthread_internal_list }
%struct.__pthread_internal_list = type { ptr, ptr }
%struct.anon = type { ptr, ptr }
%union.anon = type { %struct.QTailQLink }
%struct.QTailQLink = type { ptr, ptr }
%union.anon.0 = type { %struct.QTailQLink }
%union.anon.1 = type { %struct.QTailQLink }
%struct.QemuLockCnt = type { i32 }
%struct.CPUNegativeOffsetState = type { %struct.CPUTLB, ptr, i64, i64, %union.IcountDecr, i8 }
%struct.CPUTLB = type { %struct.CPUTLBCommon, [16 x %struct.CPUTLBDesc], [16 x %struct.CPUTLBDescFast] }
%struct.CPUTLBCommon = type { %struct.QemuSpin, i16, i64, i64, i64 }
%struct.QemuSpin = type { i32 }
%struct.CPUTLBDesc = type { i64, i64, i64, i64, i64, i64, [8 x %union.CPUTLBEntry], [8 x %struct.CPUTLBEntryFull], ptr }
%union.CPUTLBEntry = type { %struct.anon.2 }
%struct.anon.2 = type { i64, i64, i64, i64 }
%struct.CPUTLBEntryFull = type { i64, i64, %struct.MemTxAttrs, i8, i8, i8, [3 x i8], %union.anon.3 }
%struct.MemTxAttrs = type { i32, i8, i8, i16 }
%union.anon.3 = type { %struct.anon.4 }
%struct.anon.4 = type { i8, i8, i8 }
%struct.CPUTLBDescFast = type { i64, ptr }
%union.IcountDecr = type { i32 }
%struct.CPUArchState = type { [32 x i64], [32 x i64], [512 x i64], i64, i64, i64, i64, i64, i8, i64, i64, i64, [32 x i64], i64, %struct.float_status, i64, i64, i64, i64, i64, i32, i32, i32, i32, i64, i64, i8, i64, i64, i64, i32, i64, i64, i64, ptr, ptr, i8, i64, i64, i64, i64, i64, i64, i64, i64, i64 }
%struct.float_status = type { i16, i8, i8, i8, i8, i8, i8, i8, i8, i8, i8, i8, i8, i8, i8, i8 }
%struct.GDBFeature = type { ptr, ptr, ptr, ptr, i32 }
%struct.RISCVCPUConfig = type { i8, i8, i8, i8, i8, i8, i8, i8, i8, i8, i8, i8, i8, i8, i8, i8, i8, i8, i8, i8, i8, i8, i8, i8, i8, i8, i8, i8, i8, i8, i8, i8, i8, i8, i8, i8, i8, i8, i8, i8, i8, i8, i8, i8, i8, i8, i8, i8, i8, i8, i8, i8, i8, i8, i8, i8, i8, i8, i8, i8, i8, i8, i8, i8, i8, i8, i8, i8, i8, i8, i8, i8, i8, i8, i8, i8, i8, i8, i8, i8, i8, i8, i8, i8, i8, i8, i8, i8, i8, i8, i8, i8, i8, i8, i8, i8, i8, i8, i8, i8, i8, i8, i8, i8, i8, i8, i8, i32, i64, i64, i8, i8, i8, i8, i8, i8, i8, i8, i8, i8, i8, i8, i8, i8, i8, i8, i8, i8, i8, i32, i16, i16, i16, i16, i16, i8, i8, i8, i8, i8 }
%struct.RISCVCPUClass = type { %struct.CPUClass, ptr, %struct.ResettablePhases, i32 }
%struct.CPUClass = type { %struct.DeviceClass, ptr, ptr, ptr, ptr, ptr, ptr, ptr, ptr, ptr, ptr, ptr, ptr, ptr, ptr, ptr, ptr, ptr, ptr, ptr, ptr, ptr, i32, i32, i8 }
%struct.DeviceClass = type { %struct.ObjectClass, [1 x i64], ptr, ptr, ptr, i16, i8, i8, ptr, ptr, ptr, ptr, ptr, ptr }
%struct.ObjectClass = type { ptr, ptr, [4 x ptr], [4 x ptr], ptr, ptr }
%struct.ResettablePhases = type { ptr, ptr, ptr }

@.str = private unnamed_addr constant [31 x i8] c"../qemu/target/riscv/gdbstub.c\00", align 1
@__func__.riscv_cpu_gdb_write_register = private unnamed_addr constant [29 x i8] c"riscv_cpu_gdb_write_register\00", align 1
@.str.5 = private unnamed_addr constant [10 x i8] c"riscv-cpu\00", align 1
@.str.6 = private unnamed_addr constant [31 x i8] c"../qemu/target/riscv/cpu-qom.h\00", align 1
@__func__.RISCV_CPU_GET_CLASS = private unnamed_addr constant [20 x i8] c"RISCV_CPU_GET_CLASS\00", align 1
@__func__.RISCV_CPU = private unnamed_addr constant [10 x i8] c"RISCV_CPU\00", align 1

; Function Attrs: inlinehint nounwind sspstrong uwtable
define internal i64 @ldq_he_p(ptr noundef %0) #2 {
  %2 = alloca ptr, align 8
  %3 = alloca i64, align 8
  store ptr %0, ptr %2, align 8
  call void @llvm.lifetime.start.p0(i64 8, ptr %3) #7
  store i64 0, ptr %3, align 8, !annotation !4
  %4 = load ptr, ptr %2, align 8
  call void @llvm.memcpy.p0.p0.i64(ptr align 8 %3, ptr align 1 %4, i64 8, i1 false)
  %5 = load i64, ptr %3, align 8
  call void @llvm.lifetime.end.p0(i64 8, ptr %3) #7
  ret i64 %5
}

; Function Attrs: inlinehint nounwind sspstrong uwtable
define internal i32 @ldl_he_p(ptr noundef %0) #2 {
  %2 = alloca ptr, align 8
  %3 = alloca i32, align 4
  store ptr %0, ptr %2, align 8
  call void @llvm.lifetime.start.p0(i64 4, ptr %3) #7
  store i32 0, ptr %3, align 4, !annotation !4
  %4 = load ptr, ptr %2, align 8
  call void @llvm.memcpy.p0.p0.i64(ptr align 4 %3, ptr align 1 %4, i64 4, i1 false)
  %5 = load i32, ptr %3, align 4
  call void @llvm.lifetime.end.p0(i64 4, ptr %3) #7
  ret i32 %5
}

; Function Attrs: inlinehint nounwind sspstrong uwtable
define internal i64 @ldq_le_p(ptr noundef %0) #2 {
  %2 = alloca ptr, align 8
  store ptr %0, ptr %2, align 8
  %3 = load ptr, ptr %2, align 8
  %4 = call i64 @ldq_he_p(ptr noundef %3)
  ret i64 %4
}

; Function Attrs: inlinehint nounwind sspstrong uwtable
define internal i32 @ldl_le_p(ptr noundef %0) #2 {
  %2 = alloca ptr, align 8
  store ptr %0, ptr %2, align 8
  %3 = load ptr, ptr %2, align 8
  %4 = call i32 @ldl_he_p(ptr noundef %3)
  ret i32 %4
}

; Function Attrs: inlinehint nounwind sspstrong uwtable
define internal ptr @RISCV_CPU(ptr noundef %0) #2 {
  %2 = alloca ptr, align 8
  store ptr %0, ptr %2, align 8
  %3 = load ptr, ptr %2, align 8
  %4 = call ptr @object_dynamic_cast_assert(ptr noundef %3, ptr noundef @.str.5, ptr noundef @.str.6, i32 noundef 56, ptr noundef @__func__.RISCV_CPU)
  ret ptr %4
}

; Function Attrs: inlinehint nounwind sspstrong uwtable
define internal ptr @RISCV_CPU_GET_CLASS(ptr noundef %0) #2 {
  %2 = alloca ptr, align 8
  store ptr %0, ptr %2, align 8
  %3 = load ptr, ptr %2, align 8
  %4 = call ptr @object_get_class(ptr noundef %3)
  %5 = call ptr @object_class_dynamic_cast_assert(ptr noundef %4, ptr noundef @.str.5, ptr noundef @.str.6, i32 noundef 56, ptr noundef @__func__.RISCV_CPU_GET_CLASS)
  ret ptr %5
}

; Function Attrs: nounwind sspstrong uwtable
define dso_local i32 @riscv_cpu_gdb_write_register(ptr noundef %0, ptr noundef %1, i32 noundef %2) #0 {
  %4 = alloca ptr, align 8
  %5 = alloca ptr, align 8
  %6 = alloca i32, align 4
  %7 = alloca ptr, align 8
  %8 = alloca ptr, align 8
  %9 = alloca ptr, align 8
  %10 = alloca i32, align 4
  %11 = alloca i64, align 8
  store ptr %0, ptr %4, align 8
  store ptr %1, ptr %5, align 8
  store i32 %2, ptr %6, align 4
  call void @llvm.lifetime.start.p0(i64 8, ptr %7) #7
  %12 = load ptr, ptr %4, align 8
  %13 = call ptr @RISCV_CPU_GET_CLASS(ptr noundef %12)
  store ptr %13, ptr %7, align 8
  call void @llvm.lifetime.start.p0(i64 8, ptr %8) #7
  %14 = load ptr, ptr %4, align 8
  %15 = call ptr @RISCV_CPU(ptr noundef %14)
  store ptr %15, ptr %8, align 8
  call void @llvm.lifetime.start.p0(i64 8, ptr %9) #7
  %16 = load ptr, ptr %8, align 8
  %17 = getelementptr inbounds nuw %struct.ArchCPU, ptr %16, i32 0, i32 1
  store ptr %17, ptr %9, align 8
  call void @llvm.lifetime.start.p0(i64 4, ptr %10) #7
  store i32 0, ptr %10, align 4
  call void @llvm.lifetime.start.p0(i64 8, ptr %11) #7
  store i64 0, ptr %11, align 8, !annotation !4
  %18 = load ptr, ptr %7, align 8
  %19 = getelementptr inbounds nuw %struct.RISCVCPUClass, ptr %18, i32 0, i32 3
  %20 = load i32, ptr %19, align 8
  switch i32 %20, label %39 [
    i32 1, label %21
    i32 2, label %25
    i32 3, label %25
  ]

21:                                               ; preds = %3
  %22 = load ptr, ptr %5, align 8
  %23 = call i32 @ldl_le_p(ptr noundef %22)
  %24 = sext i32 %23 to i64
  store i64 %24, ptr %11, align 8
  store i32 4, ptr %10, align 4
  br label %43

25:                                               ; preds = %3, %3
  %26 = load ptr, ptr %9, align 8
  %27 = getelementptr inbounds nuw %struct.CPUArchState, ptr %26, i32 0, i32 23
  %28 = load i32, ptr %27, align 4
  %29 = icmp ult i32 %28, 2
  br i1 %29, label %30, label %35

30:                                               ; preds = %25
  %31 = load ptr, ptr %5, align 8
  %32 = call i64 @ldq_le_p(ptr noundef %31)
  %33 = trunc i64 %32 to i32
  %34 = sext i32 %33 to i64
  store i64 %34, ptr %11, align 8
  br label %38

35:                                               ; preds = %25
  %36 = load ptr, ptr %5, align 8
  %37 = call i64 @ldq_le_p(ptr noundef %36)
  store i64 %37, ptr %11, align 8
  br label %38

38:                                               ; preds = %35, %30
  store i32 8, ptr %10, align 4
  br label %43

39:                                               ; preds = %3
  br label %40

40:                                               ; preds = %39
  call void @g_assertion_message_expr(ptr noundef null, ptr noundef @.str, i32 noundef 100, ptr noundef @__func__.riscv_cpu_gdb_write_register, ptr noundef null) #8
  unreachable

41:                                               ; No predecessors!
  br label %42

42:                                               ; preds = %41
  br label %43

43:                                               ; preds = %42, %38, %21
  %44 = load i32, ptr %6, align 4
  %45 = icmp sgt i32 %44, 0
  br i1 %45, label %46, label %56

46:                                               ; preds = %43
  %47 = load i32, ptr %6, align 4
  %48 = icmp slt i32 %47, 32
  br i1 %48, label %49, label %56

49:                                               ; preds = %46
  %50 = load i64, ptr %11, align 8
  %51 = load ptr, ptr %9, align 8
  %52 = getelementptr inbounds nuw %struct.CPUArchState, ptr %51, i32 0, i32 0
  %53 = load i32, ptr %6, align 4
  %54 = sext i32 %53 to i64
  %55 = getelementptr inbounds [32 x i64], ptr %52, i64 0, i64 %54
  store i64 %50, ptr %55, align 8
  br label %64

56:                                               ; preds = %46, %43
  %57 = load i32, ptr %6, align 4
  %58 = icmp eq i32 %57, 32
  br i1 %58, label %59, label %63

59:                                               ; preds = %56
  %60 = load i64, ptr %11, align 8
  %61 = load ptr, ptr %9, align 8
  %62 = getelementptr inbounds nuw %struct.CPUArchState, ptr %61, i32 0, i32 9
  store i64 %60, ptr %62, align 16
  br label %63

63:                                               ; preds = %59, %56
  br label %64

64:                                               ; preds = %63, %49
  %65 = load i32, ptr %10, align 4
  call void @llvm.lifetime.end.p0(i64 8, ptr %11) #7
  call void @llvm.lifetime.end.p0(i64 4, ptr %10) #7
  call void @llvm.lifetime.end.p0(i64 8, ptr %9) #7
  call void @llvm.lifetime.end.p0(i64 8, ptr %8) #7
  call void @llvm.lifetime.end.p0(i64 8, ptr %7) #7
  ret i32 %65
}