; Function Attrs: nounwind sspstrong uwtable
define dso_local range(i32 4, 9) i32 @riscv_cpu_gdb_write_register(ptr noundef %0, ptr noundef readonly captures(none) %1, i32 noundef %2) local_unnamed_addr #0 {
  %4 = tail call ptr @object_get_class(ptr noundef %0) #7
  %5 = tail call ptr @object_class_dynamic_cast_assert(ptr noundef %4, ptr noundef nonnull @.str.5, ptr noundef nonnull @.str.6, i32 noundef 56, ptr noundef nonnull @__func__.RISCV_CPU_GET_CLASS) #7
  %6 = tail call ptr @object_dynamic_cast_assert(ptr noundef %0, ptr noundef nonnull @.str.5, ptr noundef nonnull @.str.6, i32 noundef 56, ptr noundef nonnull @__func__.RISCV_CPU) #7
  %7 = getelementptr inbounds nuw i8, ptr %6, i64 11200
  %8 = getelementptr inbounds nuw i8, ptr %5, i64 400
  %9 = load i32, ptr %8, align 8
  switch i32 %9, label %18 [
    i32 1, label %10
    i32 2, label %12
    i32 3, label %12
  ]

10:                                               ; preds = %3
  %.val = load i32, ptr %1, align 1
  %11 = sext i32 %.val to i64
  br label %19

12:                                               ; preds = %3, %3
  %13 = getelementptr inbounds nuw i8, ptr %6, i64 16220
  %14 = load i32, ptr %13, align 4
  %15 = icmp ult i32 %14, 2
  %.val19 = load i64, ptr %1, align 1
  br i1 %15, label %16, label %19

16:                                               ; preds = %12
  %sext = shl i64 %.val19, 32
  %17 = ashr exact i64 %sext, 32
  br label %19

18:                                               ; preds = %3
  tail call void @g_assertion_message_expr(ptr noundef null, ptr noundef nonnull @.str, i32 noundef 100, ptr noundef nonnull @__func__.riscv_cpu_gdb_write_register, ptr noundef null) #8
  unreachable

19:                                               ; preds = %12, %16, %10
  %.017 = phi i32 [ 4, %10 ], [ 8, %16 ], [ 8, %12 ]
  %.0 = phi i64 [ %11, %10 ], [ %17, %16 ], [ %.val19, %12 ]
  %20 = add i32 %2, -1
  %or.cond = icmp ult i32 %20, 31
  br i1 %or.cond, label %21, label %24

21:                                               ; preds = %19
  %22 = zext nneg i32 %2 to i64
  %23 = getelementptr inbounds nuw [32 x i64], ptr %7, i64 0, i64 %22
  store i64 %.0, ptr %23, align 8
  br label %28

24:                                               ; preds = %19
  %25 = icmp eq i32 %2, 32
  br i1 %25, label %26, label %28

26:                                               ; preds = %24
  %27 = getelementptr inbounds nuw i8, ptr %6, i64 15856
  store i64 %.0, ptr %27, align 16
  br label %28

28:                                               ; preds = %24, %26, %21
  ret i32 %.017
}